/*
 * Intel ACPI Component Architecture
 * AML/ASL+ Disassembler version 20230628 (32-bit version)
 * Copyright (c) 2000 - 2023 Intel Corporation
 * 
 * Disassembly of PTDT.aml
 *
 * ACPI Data Table [PTDT]
 *
 * Format: [HexOffset DecimalOffset ByteLength]  FieldName : FieldValue (in hex)
 */

[000h 0000 004h]                   Signature : "PTDT"    
[004h 0004 004h]                Table Length : 00000D44
[008h 0008 001h]                    Revision : 00
[009h 0009 001h]                    Checksum : 7F
[00Ah 0010 006h]                      Oem ID : "_ASUS_"
[010h 0016 008h]                Oem Table ID : "Notebook"
[018h 0024 004h]                Oem Revision : 00000005
[01Ch 0028 004h]             Asl Compiler ID : "MSFT"
[020h 0032 004h]       Asl Compiler Revision : 0100000D


**** Unknown ACPI table signature [PTDT]


Raw Table Data: Length 3396 (0xD44)

    0000: 50 54 44 54 44 0D 00 00 00 7F 5F 41 53 55 53 5F  // PTDTD....._ASUS_
    0010: 4E 6F 74 65 62 6F 6F 6B 05 00 00 00 4D 53 46 54  // Notebook....MSFT
    0020: 0D 00 00 01 00 00 46 00 01 00 00 00 4F 12 00 00  // ......F.....O...
    0030: 02 00 00 00 00 00 00 00 00 00 00 00 00 00 00 00  // ................
    0040: 00 00 00 00 55 03 4F DC 97 52 DB 4E B4 D7 9B 83  // ....U.O..R.N....
    0050: 61 51 36 E4 42 00 49 00 4F 00 53 00 20 00 47 00  // aQ6.B.I.O.S. .G.
    0060: 75 00 61 00 72 00 64 00 00 00 00 00 56 00 01 00  // u.a.r.d.....V...
    0070: 00 00 70 00 7D 00 0A 00 00 00 00 00 00 00 00 00  // ..p.}...........
    0080: 00 00 00 00 00 00 00 00 00 00 FD 7C 09 27 E5 46  // ...........|.'.F
    0090: 39 4E B8 E4 33 E4 39 A1 3E AF 46 00 53 00 50 00  // 9N..3.9.>.F.S.P.
    00A0: 20 00 42 00 69 00 6E 00 61 00 72 00 79 00 20 00  //  .B.i.n.a.r.y. .
    00B0: 56 00 65 00 72 00 73 00 69 00 6F 00 6E 00 00 00  // V.e.r.s.i.o.n...
    00C0: 00 00 48 00 01 00 00 00 45 10 00 17 00 00 00 00  // ..H.....E.......
    00D0: 00 00 00 00 00 00 00 00 00 00 00 00 00 00 00 00  // ................
    00E0: 6E 97 23 E8 BA 63 14 41 B6 4B 81 12 72 8D 4E 03  // n.#..c.A.K..r.N.
    00F0: 47 00 4F 00 50 00 20 00 56 00 65 00 72 00 73 00  // G.O.P. .V.e.r.s.
    0100: 69 00 6F 00 6E 00 00 00 00 00 62 00 01 00 00 00  // i.o.n.....b.....
    0110: 20 00 26 00 08 00 00 00 00 00 00 00 00 00 00 00  //  .&.............
    0120: 00 00 00 00 00 00 00 00 3E A6 C1 64 2D BA DE 41  // ........>..d-..A
    0130: 96 55 2F 70 FE 61 8F 00 52 00 65 00 66 00 65 00  // .U/p.a..R.e.f.e.
    0140: 72 00 65 00 6E 00 63 00 65 00 20 00 43 00 6F 00  // r.e.n.c.e. .C.o.
    0150: 64 00 65 00 20 00 2D 00 20 00 49 00 43 00 4C 00  // d.e. .-. .I.C.L.
    0160: 20 00 50 00 43 00 48 00 00 00 00 00 50 00 01 00  //  .P.C.H.....P...
    0170: 00 00 FF FF FF FF FF 00 00 00 00 00 00 00 00 00  // ................
    0180: 00 00 00 00 00 00 00 00 00 00 ED CB 99 21 3E 4D  // .............!>M
    0190: EF 45 85 D1 E1 BA D5 A3 70 A9 50 00 43 00 48 00  // .E......p.P.C.H.
    01A0: 2D 00 43 00 52 00 49 00 44 00 20 00 53 00 74 00  // -.C.R.I.D. .S.t.
    01B0: 61 00 74 00 75 00 73 00 00 00 00 00 60 00 01 00  // a.t.u.s.....`...
    01C0: 00 00 20 00 FF FF FF 00 00 00 00 00 00 00 00 00  // .. .............
    01D0: 00 00 00 00 00 00 00 00 00 00 61 73 3F A8 FA FE  // ..........as?...
    01E0: D6 42 8B 32 95 F2 98 9B F6 D4 50 00 43 00 48 00  // .B.2......P.C.H.
    01F0: 2D 00 43 00 52 00 49 00 44 00 20 00 4F 00 72 00  // -.C.R.I.D. .O.r.
    0200: 69 00 67 00 69 00 6E 00 61 00 6C 00 20 00 56 00  // i.g.i.n.a.l. .V.
    0210: 61 00 6C 00 75 00 65 00 00 00 00 00 56 00 01 00  // a.l.u.e.....V...
    0220: 00 00 20 00 FF FF FF 00 00 00 00 00 00 00 00 00  // .. .............
    0230: 00 00 00 00 00 00 00 00 00 00 16 A7 4C D8 D3 7E  // ............L..~
    0240: 4B 4C B1 D5 2B 8C 27 4A 19 F1 50 00 43 00 48 00  // KL..+.'J..P.C.H.
    0250: 2D 00 43 00 52 00 49 00 44 00 20 00 4E 00 65 00  // -.C.R.I.D. .N.e.
    0260: 77 00 20 00 56 00 61 00 6C 00 75 00 65 00 00 00  // w. .V.a.l.u.e...
    0270: 00 00 56 00 01 00 00 00 00 00 00 46 02 00 00 00  // ..V........F....
    0280: 00 00 00 00 00 00 00 00 00 00 00 00 00 00 00 00  // ................
    0290: BF 95 B0 E9 E2 DE C9 4A 87 78 9E 41 FB 86 C4 36  // .......J.x.A...6
    02A0: 4F 00 50 00 52 00 4F 00 4D 00 20 00 2D 00 20 00  // O.P.R.O.M. .-. .
    02B0: 52 00 53 00 54 00 20 00 2D 00 20 00 52 00 41 00  // R.S.T. .-. .R.A.
    02C0: 49 00 44 00 00 00 00 00 66 00 01 00 00 00 00 00  // I.D.....f.......
    02D0: 00 00 06 00 00 00 00 00 00 00 00 00 00 00 00 00  // ................
    02E0: 00 00 00 00 00 00 67 DD 85 E3 03 8F 72 48 AB 47  // ......g.....rH.G
    02F0: 3C A1 14 BE 1E 52 49 00 43 00 4C 00 20 00 50 00  // <....RI.C.L. .P.
    0300: 43 00 48 00 20 00 4C 00 50 00 20 00 41 00 78 00  // C.H. .L.P. .A.x.
    0310: 20 00 48 00 73 00 69 00 6F 00 20 00 56 00 65 00  //  .H.s.i.o. .V.e.
    0320: 72 00 73 00 69 00 6F 00 6E 00 00 00 00 00 66 00  // r.s.i.o.n.....f.
    0330: 01 00 00 00 00 00 00 00 08 00 00 00 00 00 00 00  // ................
    0340: 00 00 00 00 00 00 00 00 00 00 00 00 98 49 65 CD  // .............Ie.
    0350: CA 2C C5 45 AD 5D 78 EB 6E F4 FE D0 49 00 43 00  // .,.E.]x.n...I.C.
    0360: 4C 00 20 00 50 00 43 00 48 00 20 00 4C 00 50 00  // L. .P.C.H. .L.P.
    0370: 20 00 42 00 78 00 20 00 48 00 73 00 69 00 6F 00  //  .B.x. .H.s.i.o.
    0380: 20 00 56 00 65 00 72 00 73 00 69 00 6F 00 6E 00  //  .V.e.r.s.i.o.n.
    0390: 00 00 00 00 66 00 01 00 00 00 00 00 00 00 02 00  // ....f...........
    03A0: 00 00 00 00 00 00 00 00 00 00 00 00 00 00 00 00  // ................
    03B0: 00 00 C5 B4 01 37 75 50 BB 4F 94 F1 4C A1 C4 B1  // .....7uP.O..L...
    03C0: 1A 7E 49 00 43 00 4C 00 20 00 50 00 43 00 48 00  // .~I.C.L. .P.C.H.
    03D0: 20 00 4C 00 50 00 20 00 43 00 78 00 20 00 48 00  //  .L.P. .C.x. .H.
    03E0: 73 00 69 00 6F 00 20 00 56 00 65 00 72 00 73 00  // s.i.o. .V.e.r.s.
    03F0: 69 00 6F 00 6E 00 00 00 00 00 66 00 01 00 00 00  // i.o.n.....f.....
    0400: 00 00 00 00 01 00 00 00 00 00 00 00 00 00 00 00  // ................
    0410: 00 00 00 00 00 00 00 00 08 9D 95 1E 39 B9 F7 40  // ............9..@
    0420: BC DD 91 E9 1E 50 60 47 49 00 43 00 4C 00 20 00  // .....P`GI.C.L. .
    0430: 50 00 43 00 48 00 20 00 4C 00 50 00 20 00 44 00  // P.C.H. .L.P. .D.
    0440: 78 00 20 00 48 00 73 00 69 00 6F 00 20 00 56 00  // x. .H.s.i.o. .V.
    0450: 65 00 72 00 73 00 69 00 6F 00 6E 00 00 00 00 00  // e.r.s.i.o.n.....
    0460: 64 00 01 00 00 00 00 00 00 00 05 00 00 00 00 00  // d...............
    0470: 00 00 00 00 00 00 00 00 00 00 00 00 00 00 CC A2  // ................
    0480: 93 D2 DA F0 75 49 AD F6 32 65 C5 9A 22 BD 49 00  // ....uI..2e..".I.
    0490: 43 00 4C 00 20 00 50 00 43 00 48 00 20 00 4E 00  // C.L. .P.C.H. .N.
    04A0: 20 00 41 00 78 00 20 00 48 00 73 00 69 00 6F 00  //  .A.x. .H.s.i.o.
    04B0: 20 00 56 00 65 00 72 00 73 00 69 00 6F 00 6E 00  //  .V.e.r.s.i.o.n.
    04C0: 00 00 00 00 64 00 01 00 00 00 00 00 00 00 01 00  // ....d...........
    04D0: 00 00 00 00 00 00 00 00 00 00 00 00 00 00 00 00  // ................
    04E0: 00 00 74 23 BB 4A 7E 76 7A 41 A3 65 78 99 4B D0  // ..t#.J~vzA.ex.K.
    04F0: F6 37 49 00 43 00 4C 00 20 00 50 00 43 00 48 00  // .7I.C.L. .P.C.H.
    0500: 20 00 4E 00 20 00 42 00 78 00 20 00 48 00 73 00  //  .N. .B.x. .H.s.
    0510: 69 00 6F 00 20 00 56 00 65 00 72 00 73 00 69 00  // i.o. .V.e.r.s.i.
    0520: 6F 00 6E 00 00 00 00 00 76 00 01 00 00 00 20 00  // o.n.....v..... .
    0530: 26 00 08 00 00 00 00 00 00 00 00 00 00 00 00 00  // &...............
    0540: 00 00 00 00 00 00 9D AF D8 38 3D 0F 48 4E A3 6B  // .........8=.HN.k
    0550: FA FD 68 61 48 A0 52 00 65 00 66 00 65 00 72 00  // ..haH.R.e.f.e.r.
    0560: 65 00 6E 00 63 00 65 00 20 00 43 00 6F 00 64 00  // e.n.c.e. .C.o.d.
    0570: 65 00 20 00 2D 00 20 00 53 00 41 00 20 00 2D 00  // e. .-. .S.A. .-.
    0580: 20 00 53 00 79 00 73 00 74 00 65 00 6D 00 20 00  //  .S.y.s.t.e.m. .
    0590: 41 00 67 00 65 00 6E 00 74 00 00 00 00 00 5A 00  // A.g.e.n.t.....Z.
    05A0: 01 00 00 00 0A 00 02 00 02 00 00 00 00 00 00 00  // ................
    05B0: 00 00 00 00 00 00 00 00 00 00 00 00 E6 6E 25 73  // .............n%s
    05C0: 90 A9 13 4B 8A BA 76 E2 2C 3E 99 3C 52 00 65 00  // ...K..v.,>.<R.e.
    05D0: 66 00 65 00 72 00 65 00 6E 00 63 00 65 00 20 00  // f.e.r.e.n.c.e. .
    05E0: 43 00 6F 00 64 00 65 00 20 00 2D 00 20 00 4D 00  // C.o.d.e. .-. .M.
    05F0: 52 00 43 00 00 00 00 00 54 00 01 00 00 00 20 00  // R.C.....T..... .
    0600: 26 00 08 00 00 00 00 00 00 00 00 00 00 00 00 00  // &...............
    0610: 00 00 00 00 00 00 12 5B 2B FA 24 31 DE 43 84 E6  // .......[+.$1.C..
    0620: C4 11 4E 88 1F 43 53 00 41 00 20 00 2D 00 20 00  // ..N..CS.A. .-. .
    0630: 50 00 43 00 49 00 65 00 20 00 56 00 65 00 72 00  // P.C.I.e. .V.e.r.
    0640: 73 00 69 00 6F 00 6E 00 00 00 00 00 4E 00 01 00  // s.i.o.n.....N...
    0650: 00 00 FF FF FF FF FF 00 00 00 00 00 00 00 00 00  // ................
    0660: 00 00 00 00 00 00 00 00 00 00 E7 63 A4 47 6D 19  // ...........c.Gm.
    0670: 77 45 B5 36 3B 9A 85 B7 38 4B 53 00 41 00 2D 00  // wE.6;...8KS.A.-.
    0680: 43 00 52 00 49 00 44 00 20 00 53 00 74 00 61 00  // C.R.I.D. .S.t.a.
    0690: 74 00 75 00 73 00 00 00 00 00 5E 00 01 00 00 00  // t.u.s.....^.....
    06A0: 01 00 00 00 00 00 00 00 00 00 00 00 00 00 00 00  // ................
    06B0: 00 00 00 00 00 00 00 00 21 E0 3C 3D 65 CE F5 A2  // ........!.<=e...
    06C0: A2 F5 00 8B 2B BB 0C A2 53 00 41 00 2D 00 43 00  // ....+...S.A.-.C.
    06D0: 52 00 49 00 44 00 20 00 4F 00 72 00 69 00 67 00  // R.I.D. .O.r.i.g.
    06E0: 69 00 6E 00 61 00 6C 00 20 00 56 00 61 00 6C 00  // i.n.a.l. .V.a.l.
    06F0: 75 00 65 00 00 00 00 00 54 00 01 00 00 00 01 00  // u.e.....T.......
    0700: 00 00 00 00 00 00 00 00 00 00 00 00 00 00 00 00  // ................
    0710: 00 00 00 00 00 00 3C FF A3 84 65 CE 8D 44 81 C4  // ......<...e..D..
    0720: 1A 62 A8 A9 C3 6E 53 00 41 00 2D 00 43 00 52 00  // .b...nS.A.-.C.R.
    0730: 49 00 44 00 20 00 4E 00 65 00 77 00 20 00 56 00  // I.D. .N.e.w. .V.
    0740: 61 00 6C 00 75 00 65 00 00 00 00 00 4C 00 01 00  // a.l.u.e.....L...
    0750: 00 00 FF FF FF FF FF 00 00 00 00 00 00 00 00 00  // ................
    0760: 00 00 00 00 00 00 00 00 00 00 3E 15 50 FA 27 66  // ..........>.P.'f
    0770: 14 47 92 20 B8 C7 1D AB 42 9A 4F 00 50 00 52 00  // .G. ....B.O.P.R.
    0780: 4F 00 4D 00 20 00 2D 00 20 00 56 00 42 00 49 00  // O.M. .-. .V.B.I.
    0790: 4F 00 53 00 00 00 00 00 5A 00 01 00 00 00 20 00  // O.S.....Z..... .
    07A0: 26 00 08 00 00 00 00 00 00 00 00 00 00 00 00 00  // &...............
    07B0: 00 00 00 00 00 00 B9 78 77 87 22 CF 6A 47 97 A1  // .......xw.".jG..
    07C0: 27 53 0D 9A FE 42 52 00 65 00 66 00 65 00 72 00  // 'S...BR.e.f.e.r.
    07D0: 65 00 6E 00 63 00 65 00 20 00 43 00 6F 00 64 00  // e.n.c.e. .C.o.d.
    07E0: 65 00 20 00 2D 00 20 00 43 00 50 00 55 00 00 00  // e. .-. .C.P.U...
    07F0: 00 00 4C 00 01 00 00 00 AC 00 00 00 00 00 00 00  // ..L.............
    0800: 00 00 00 00 00 00 00 00 00 00 00 00 00 00 00 00  // ................
    0810: F3 FE 72 DA 2B 78 38 4C 85 40 2C 90 21 7C 16 73  // ..r.+x8L.@,.!|.s
    0820: 75 00 43 00 6F 00 64 00 65 00 20 00 56 00 65 00  // u.C.o.d.e. .V.e.
    0830: 72 00 73 00 69 00 6F 00 6E 00 00 00 00 00 50 00  // r.s.i.o.n.....P.
    0840: 01 00 00 00 00 00 2E 0E 01 00 00 00 00 00 00 00  // ................
    0850: 00 00 00 00 00 00 00 00 00 00 00 00 AC 3D 64 EC  // .............=d.
    0860: B9 AB 5F 46 83 A6 A8 57 E1 D0 3B A2 54 00 58 00  // .._F...W..;.T.X.
    0870: 54 00 20 00 41 00 43 00 4D 00 20 00 76 00 65 00  // T. .A.C.M. .v.e.
    0880: 72 00 73 00 69 00 6F 00 6E 00 00 00 00 00 58 00  // r.s.i.o.n.....X.
    0890: 01 00 00 00 20 00 26 00 08 00 00 00 00 00 00 00  // .... .&.........
    08A0: 00 00 00 00 00 00 00 00 00 00 00 00 60 C4 58 68  // ............`.Xh
    08B0: BA 15 AB 4E B6 7C 00 53 FF CD ED 54 52 00 65 00  // ...N.|.S...TR.e.
    08C0: 66 00 65 00 72 00 65 00 6E 00 63 00 65 00 20 00  // f.e.r.e.n.c.e. .
    08D0: 43 00 6F 00 64 00 65 00 20 00 2D 00 20 00 4D 00  // C.o.d.e. .-. .M.
    08E0: 45 00 00 00 00 00 4A 00 01 00 00 00 FF FF FF FF  // E.....J.........
    08F0: FF 00 00 00 00 00 00 00 00 00 00 00 00 00 00 00  // ................
    0900: 00 00 00 00 5D 2D 9A D3 1E 17 A1 4D B8 4D F0 FC  // ....]-.....M.M..
    0910: DE 7C C4 31 4D 00 45 00 42 00 78 00 20 00 76 00  // .|.1M.E.B.x. .v.
    0920: 65 00 72 00 73 00 69 00 6F 00 6E 00 00 00 00 00  // e.r.s.i.o.n.....
    0930: 58 00 01 00 00 00 6B 09 2D 00 0F 00 00 00 00 00  // X.....k.-.......
    0940: 00 00 00 00 00 00 00 00 00 00 00 00 00 00 5D A2  // ..............].
    0950: 2B A6 FC FF C6 4A A9 0E 24 57 AC 0E 47 7E 4D 00  // +....J..$W..G~M.
    0960: 45 00 20 00 46 00 69 00 72 00 6D 00 77 00 61 00  // E. .F.i.r.m.w.a.
    0970: 72 00 65 00 20 00 56 00 65 00 72 00 73 00 69 00  // r.e. .V.e.r.s.i.
    0980: 6F 00 6E 00 00 00 00 00 50 00 01 00 00 00 FF FF  // o.n.....P.......
    0990: FF FF FF 00 00 00 00 00 00 00 00 00 00 00 00 00  // ................
    09A0: 00 00 00 00 00 00 D6 3F 8C 98 B2 92 A0 41 B5 C3  // .......?.....A..
    09B0: 78 A5 CD 47 12 F7 4C 00 61 00 6E 00 20 00 50 00  // x..G..L.a.n. .P.
    09C0: 68 00 79 00 20 00 56 00 65 00 72 00 73 00 69 00  // h.y. .V.e.r.s.i.
    09D0: 6F 00 6E 00 00 00 00 00 60 00 01 00 00 00 FF FF  // o.n.....`.......
    09E0: FF FF FF 00 00 00 00 00 00 00 00 00 00 00 00 00  // ................
    09F0: 00 00 00 00 00 00 EB A3 19 C5 2A 6D D0 47 AA D3  // ..........*m.G..
    0A00: 5E B0 06 B6 31 21 53 00 65 00 6E 00 73 00 6F 00  // ^...1!S.e.n.s.o.
    0A10: 72 00 20 00 46 00 69 00 72 00 6D 00 77 00 61 00  // r. .F.i.r.m.w.a.
    0A20: 72 00 65 00 20 00 56 00 65 00 72 00 73 00 69 00  // r.e. .V.e.r.s.i.
    0A30: 6F 00 6E 00 00 00 00 00 54 00 01 00 00 00 FF FF  // o.n.....T.......
    0A40: FF FF FF 00 00 00 00 00 00 00 00 00 00 00 00 00  // ................
    0A50: 00 00 00 00 00 00 7D 25 EC E1 D4 43 5B 41 95 03  // ......}%...C[A..
    0A60: 9E C0 4A C5 61 58 44 00 65 00 62 00 75 00 67 00  // ..J.aXD.e.b.u.g.
    0A70: 20 00 4D 00 6F 00 64 00 65 00 20 00 53 00 74 00  //  .M.o.d.e. .S.t.
    0A80: 61 00 74 00 75 00 73 00 00 00 00 00 60 00 01 00  // a.t.u.s.....`...
    0A90: 00 00 FF FF FF FF FF 00 00 00 00 00 00 00 00 00  // ................
    0AA0: 00 00 00 00 00 00 00 00 00 00 1F 12 23 E3 0C E6  // ............#...
    0AB0: D8 43 8E 0F 69 D9 D7 DA B3 A0 50 00 65 00 72 00  // .C..i.....P.e.r.
    0AC0: 66 00 6F 00 72 00 6D 00 61 00 6E 00 63 00 65 00  // f.o.r.m.a.n.c.e.
    0AD0: 20 00 4D 00 6F 00 64 00 65 00 20 00 53 00 74 00  //  .M.o.d.e. .S.t.
    0AE0: 61 00 74 00 75 00 73 00 00 00 00 00 4C 00 01 00  // a.t.u.s.....L...
    0AF0: 00 00 FF FF FF FF FF 00 00 00 00 00 00 00 00 00  // ................
    0B00: 00 00 00 00 00 00 00 00 00 00 EF DE 0C AB 27 0B  // ..............'.
    0B10: 2B 4C B6 B7 9B 73 40 43 E3 DE 44 00 65 00 62 00  // +L...s@C..D.e.b.
    0B20: 75 00 67 00 20 00 55 00 73 00 65 00 20 00 55 00  // u.g. .U.s.e. .U.
    0B30: 53 00 42 00 00 00 00 00 62 00 01 00 00 00 FF FF  // S.B.....b.......
    0B40: FF FF FF 00 00 00 00 00 00 00 00 00 00 00 00 00  // ................
    0B50: 00 00 00 00 00 00 EA C4 11 BB 28 69 6C 4F B3 48  // ..........(ilO.H
    0B60: 72 C0 CF C9 D0 4D 49 00 43 00 43 00 20 00 4F 00  // r....MI.C.C. .O.
    0B70: 76 00 65 00 72 00 63 00 6C 00 6F 00 63 00 6B 00  // v.e.r.c.l.o.c.k.
    0B80: 69 00 6E 00 67 00 20 00 56 00 65 00 72 00 73 00  // i.n.g. .V.e.r.s.
    0B90: 69 00 6F 00 6E 00 00 00 00 00 4C 00 01 00 00 00  // i.o.n.....L.....
    0BA0: 00 00 00 FF FF 00 00 00 00 00 00 00 00 00 00 00  // ................
    0BB0: 00 00 00 00 00 00 00 00 89 55 28 03 37 1E 72 4B  // .........U(.7.rK
    0BC0: A5 F9 70 D1 AD AE 5D 34 45 00 43 00 20 00 46 00  // ..p...]4E.C. .F.
    0BD0: 57 00 20 00 56 00 65 00 72 00 73 00 69 00 6F 00  // W. .V.e.r.s.i.o.
    0BE0: 6E 00 00 00 00 00 56 00 01 00 00 00 FF FF FF FF  // n.....V.........
    0BF0: FF 00 00 00 00 00 00 00 00 00 00 00 00 00 00 00  // ................
    0C00: 00 00 00 00 FF F3 9A DD 6E E2 91 41 BE 2C 4B 9F  // ........n..A.,K.
    0C10: 43 ED C9 D9 52 00 6F 00 79 00 61 00 6C 00 20 00  // C...R.o.y.a.l. .
    0C20: 50 00 61 00 72 00 6B 00 20 00 56 00 65 00 72 00  // P.a.r.k. .V.e.r.
    0C30: 73 00 69 00 6F 00 6E 00 00 00 00 00 5A 00 01 00  // s.i.o.n.....Z...
    0C40: 00 00 00 00 02 05 01 00 00 00 00 00 00 00 00 00  // ................
    0C50: 00 00 00 00 00 00 00 00 00 00 E3 C8 81 33 2C B9  // .............3,.
    0C60: AC 4B B6 C6 43 90 91 1E 93 4D 45 00 44 00 4B 00  // .K..C....ME.D.K.
    0C70: 49 00 49 00 20 00 53 00 74 00 61 00 62 00 6C 00  // I.I. .S.t.a.b.l.
    0C80: 65 00 20 00 56 00 65 00 72 00 73 00 69 00 6F 00  // e. .V.e.r.s.i.o.
    0C90: 6E 00 00 00 00 00 52 00 01 00 00 00 00 00 00 07  // n.....R.........
    0CA0: 00 00 00 00 00 00 00 00 00 00 00 00 00 00 00 00  // ................
    0CB0: 00 00 00 00 B4 CD 7D 42 33 1C 2B 4F B7 36 F8 DA  // ......}B3.+O.6..
    0CC0: BE 9E 9A CD 50 00 6C 00 61 00 74 00 66 00 6F 00  // ....P.l.a.t.f.o.
    0CD0: 72 00 6D 00 20 00 56 00 65 00 72 00 73 00 69 00  // r.m. .V.e.r.s.i.
    0CE0: 6F 00 6E 00 00 00 00 00 5E 00 01 00 00 00 0F 00  // o.n.....^.......
    0CF0: 00 02 00 00 00 00 00 00 00 00 00 00 00 00 00 00  // ................
    0D00: 00 00 00 00 00 00 86 BC B0 CC CD 1B 6F 47 AA BE  // ............oG..
    0D10: E1 91 59 24 4B FD 43 00 6C 00 69 00 65 00 6E 00  // ..Y$K.C.l.i.e.n.
    0D20: 74 00 20 00 53 00 69 00 6C 00 69 00 63 00 6F 00  // t. .S.i.l.i.c.o.
    0D30: 6E 00 20 00 56 00 65 00 72 00 73 00 69 00 6F 00  // n. .V.e.r.s.i.o.
    0D40: 6E 00 00 00                                      // n...
