/*
 * Intel ACPI Component Architecture
 * AML/ASL+ Disassembler version 20230628 (32-bit version)
 * Copyright (c) 2000 - 2023 Intel Corporation
 * 
 * Disassembly of UEFI.aml
 *
 * ACPI Data Table [UEFI]
 *
 * Format: [HexOffset DecimalOffset ByteLength]  FieldName : FieldValue (in hex)
 */

[000h 0000 004h]                   Signature : "UEFI"    [UEFI Boot Optimization Table]
[004h 0004 004h]                Table Length : 0000063A
[008h 0008 001h]                    Revision : 01
[009h 0009 001h]                    Checksum : 7C
[00Ah 0010 006h]                      Oem ID : "INTEL"
[010h 0016 008h]                Oem Table ID : "RstVmdE"
[018h 0024 004h]                Oem Revision : 00000000
[01Ch 0028 004h]             Asl Compiler ID : "  "
[020h 0032 004h]       Asl Compiler Revision : 00000000

[024h 0036 010h]             UUID Identifier : B73C1974-784D-4991-9692-6776E38AAA82
[034h 0052 002h]                 Data Offset : 0036

Raw Table Data: Length 1594 (0x63A)

    0000: 55 45 46 49 3A 06 00 00 01 7C 49 4E 54 45 4C 00  // UEFI:....|INTEL.
    0010: 52 73 74 56 6D 64 45 00 00 00 00 00 86 80 00 00  // RstVmdE.........
    0020: 00 00 00 00 74 19 3C B7 4D 78 91 49 96 92 67 76  // ....t.<.Mx.I..gv
    0030: E3 8A AA 82 36 00 00 00 00 00 00 00 00 00 00 00  // ....6...........
    0040: 00 00 00 00 00 00 00 00 00 00 00 00 00 00 00 00  // ................
    0050: 00 00 00 00 00 00 00 00 00 00 00 00 00 00 00 00  // ................
    0060: 00 00 00 00 00 00 00 00 00 00 00 00 00 00 00 00  // ................
    0070: 00 00 00 00 00 00 00 00 00 00 00 00 00 00 00 00  // ................
    0080: 00 00 00 00 00 00 00 00 00 00 00 00 00 00 00 00  // ................
    0090: 00 00 00 00 00 00 00 00 00 00 00 00 00 00 00 00  // ................
    00A0: 00 00 00 00 00 00 00 00 00 00 00 00 00 00 00 00  // ................
    00B0: 00 00 00 00 00 00 00 00 00 00 00 00 00 00 00 00  // ................
    00C0: 00 00 00 00 00 00 00 00 00 00 00 00 00 00 00 00  // ................
    00D0: 00 00 00 00 00 00 00 00 00 00 00 00 00 00 00 00  // ................
    00E0: 00 00 00 00 00 00 00 00 00 00 00 00 00 00 00 00  // ................
    00F0: 00 00 00 00 00 00 00 00 00 00 00 00 00 00 00 00  // ................
    0100: 00 00 00 00 00 00 00 00 00 00 00 00 00 00 00 00  // ................
    0110: 00 00 00 00 00 00 00 00 00 00 00 00 00 00 00 00  // ................
    0120: 00 00 00 00 00 00 00 00 00 00 00 00 00 00 00 00  // ................
    0130: 00 00 00 00 00 00 00 00 00 00 00 00 00 00 00 00  // ................
    0140: 00 00 00 00 00 00 00 00 00 00 00 00 00 00 00 00  // ................
    0150: 00 00 00 00 00 00 00 00 00 00 00 00 00 00 00 00  // ................
    0160: 00 00 00 00 00 00 00 00 00 00 00 00 00 00 00 00  // ................
    0170: 00 00 00 00 00 00 00 00 00 00 00 00 00 00 00 00  // ................
    0180: 00 00 00 00 00 00 00 00 00 00 00 00 00 00 00 00  // ................
    0190: 00 00 00 00 00 00 00 00 00 00 00 00 00 00 00 00  // ................
    01A0: 00 00 00 00 00 00 00 00 00 00 00 00 00 00 00 00  // ................
    01B0: 00 00 00 00 00 00 00 00 00 00 00 00 00 00 00 00  // ................
    01C0: 00 00 00 00 00 00 00 00 00 00 00 00 00 00 00 00  // ................
    01D0: 00 00 00 00 00 00 00 00 00 00 00 00 00 00 00 00  // ................
    01E0: 00 00 00 00 00 00 00 00 00 00 00 00 00 00 00 00  // ................
    01F0: 00 00 00 00 00 00 00 00 00 00 00 00 00 00 00 00  // ................
    0200: 00 00 00 00 00 00 00 00 00 00 00 00 00 00 00 00  // ................
    0210: 00 00 00 00 00 00 00 00 00 00 00 00 00 00 00 00  // ................
    0220: 00 00 00 00 00 00 00 00 00 00 00 00 00 00 00 00  // ................
    0230: 00 00 00 00 00 00 00 00 00 00 00 00 00 00 00 00  // ................
    0240: 00 00 00 00 00 00 00 00 00 00 00 00 00 00 00 00  // ................
    0250: 00 00 00 00 00 00 00 00 00 00 00 00 00 00 00 00  // ................
    0260: 00 00 00 00 00 00 00 00 00 00 00 00 00 00 00 00  // ................
    0270: 00 00 00 00 00 00 00 00 00 00 00 00 00 00 00 00  // ................
    0280: 00 00 00 00 00 00 00 00 00 00 00 00 00 00 00 00  // ................
    0290: 00 00 00 00 00 00 00 00 00 00 00 00 00 00 00 00  // ................
    02A0: 00 00 00 00 00 00 00 00 00 00 00 00 00 00 00 00  // ................
    02B0: 00 00 00 00 00 00 00 00 00 00 00 00 00 00 00 00  // ................
    02C0: 00 00 00 00 00 00 00 00 00 00 00 00 00 00 00 00  // ................
    02D0: 00 00 00 00 00 00 00 00 00 00 00 00 00 00 00 00  // ................
    02E0: 00 00 00 00 00 00 00 00 00 00 00 00 00 00 00 00  // ................
    02F0: 00 00 00 00 00 00 00 00 00 00 00 00 00 00 00 00  // ................
    0300: 00 00 00 00 00 00 00 00 00 00 00 00 00 00 00 00  // ................
    0310: 00 00 00 00 00 00 00 00 00 00 00 00 00 00 00 00  // ................
    0320: 00 00 00 00 00 00 00 00 00 00 00 00 00 00 00 00  // ................
    0330: 00 00 00 00 00 00 00 00 00 00 00 00 00 00 00 00  // ................
    0340: 00 00 00 00 00 00 00 00 00 00 00 00 00 00 00 00  // ................
    0350: 00 00 00 00 00 00 00 00 00 00 00 00 00 00 00 00  // ................
    0360: 00 00 00 00 00 00 00 00 00 00 00 00 00 00 00 00  // ................
    0370: 00 00 00 00 00 00 00 00 00 00 00 00 00 00 00 00  // ................
    0380: 00 00 00 00 00 00 00 00 00 00 00 00 00 00 00 00  // ................
    0390: 00 00 00 00 00 00 00 00 00 00 00 00 00 00 00 00  // ................
    03A0: 00 00 00 00 00 00 00 00 00 00 00 00 00 00 00 00  // ................
    03B0: 00 00 00 00 00 00 00 00 00 00 00 00 00 00 00 00  // ................
    03C0: 00 00 00 00 00 00 00 00 00 00 00 00 00 00 00 00  // ................
    03D0: 00 00 00 00 00 00 00 00 00 00 00 00 00 00 00 00  // ................
    03E0: 00 00 00 00 00 00 00 00 00 00 00 00 00 00 00 00  // ................
    03F0: 00 00 00 00 00 00 00 00 00 00 00 00 00 00 00 00  // ................
    0400: 00 00 00 00 00 00 00 00 00 00 00 00 00 00 00 00  // ................
    0410: 00 00 00 00 00 00 00 00 00 00 00 00 00 00 00 00  // ................
    0420: 00 00 00 00 00 00 00 00 00 00 00 00 00 00 00 00  // ................
    0430: 00 00 00 00 00 00 00 00 00 00 00 00 00 00 00 00  // ................
    0440: 00 00 00 00 00 00 00 00 00 00 00 00 00 00 00 00  // ................
    0450: 00 00 00 00 00 00 00 00 00 00 00 00 00 00 00 00  // ................
    0460: 00 00 00 00 00 00 00 00 00 00 00 00 00 00 00 00  // ................
    0470: 00 00 00 00 00 00 00 00 00 00 00 00 00 00 00 00  // ................
    0480: 00 00 00 00 00 00 00 00 00 00 00 00 00 00 00 00  // ................
    0490: 00 00 00 00 00 00 00 00 00 00 00 00 00 00 00 00  // ................
    04A0: 00 00 00 00 00 00 00 00 00 00 00 00 00 00 00 00  // ................
    04B0: 00 00 00 00 00 00 00 00 00 00 00 00 00 00 00 00  // ................
    04C0: 00 00 00 00 00 00 00 00 00 00 00 00 00 00 00 00  // ................
    04D0: 00 00 00 00 00 00 00 00 00 00 00 00 00 00 00 00  // ................
    04E0: 00 00 00 00 00 00 00 00 00 00 00 00 00 00 00 00  // ................
    04F0: 00 00 00 00 00 00 00 00 00 00 00 00 00 00 00 00  // ................
    0500: 00 00 00 00 00 00 00 00 00 00 00 00 00 00 00 00  // ................
    0510: 00 00 00 00 00 00 00 00 00 00 00 00 00 00 00 00  // ................
    0520: 00 00 00 00 00 00 00 00 00 00 00 00 00 00 00 00  // ................
    0530: 00 00 00 00 00 00 00 00 00 00 00 00 00 00 00 00  // ................
    0540: 00 00 00 00 00 00 00 00 00 00 00 00 00 00 00 00  // ................
    0550: 00 00 00 00 00 00 00 00 00 00 00 00 00 00 00 00  // ................
    0560: 00 00 00 00 00 00 00 00 00 00 00 00 00 00 00 00  // ................
    0570: 00 00 00 00 00 00 00 00 00 00 00 00 00 00 00 00  // ................
    0580: 00 00 00 00 00 00 00 00 00 00 00 00 00 00 00 00  // ................
    0590: 00 00 00 00 00 00 00 00 00 00 00 00 00 00 00 00  // ................
    05A0: 00 00 00 00 00 00 00 00 00 00 00 00 00 00 00 00  // ................
    05B0: 00 00 00 00 00 00 00 00 00 00 00 00 00 00 00 00  // ................
    05C0: 00 00 00 00 00 00 00 00 00 00 00 00 00 00 00 00  // ................
    05D0: 00 00 00 00 00 00 00 00 00 00 00 00 00 00 00 00  // ................
    05E0: 00 00 00 00 00 00 00 00 00 00 00 00 00 00 00 00  // ................
    05F0: 00 00 00 00 00 00 00 00 00 00 00 00 00 00 00 00  // ................
    0600: 00 00 00 00 00 00 00 00 00 00 00 00 00 00 00 00  // ................
    0610: 00 00 00 00 00 00 00 00 00 00 00 00 00 00 00 00  // ................
    0620: 00 00 00 00 00 00 00 00 00 00 00 00 00 00 00 00  // ................
    0630: 00 00 00 00 00 00 00 00 00 00                    // ..........
